; Function Attrs: mustprogress nofree norecurse nosync nounwind willreturn memory(write, argmem: readwrite, inaccessiblemem: none) uwtable
define dso_local noundef i64 @inet_spg_config(ptr noundef readonly captures(none) %0) local_unnamed_addr #0 {
  %2 = getelementptr inbounds nuw i8, ptr %0, i64 48
  %3 = load i64, ptr %2, align 8
  %4 = inttoptr i64 %3 to ptr
  store i32 650, ptr %4, align 4
  %5 = getelementptr inbounds nuw i8, ptr %4, i64 4
  store i32 2278, ptr %5, align 4
  %6 = getelementptr inbounds nuw i8, ptr %4, i64 12
  store i8 1, ptr %6, align 4
  %7 = getelementptr inbounds nuw i8, ptr %4, i64 13
  store i8 0, ptr %7, align 1
  ret i64 0
}